target datalayout = "e-m:e-p270:32:32-p271:32:32-p272:64:64-i64:64-i128:128-f80:128-n8:16:32:64-S128"
target triple = "x86_64-pc-linux-gnu"

%struct.cdf_info_t = type { i32, ptr, i64 }
%struct.cdf_header_t = type { i64, [2 x i64], i16, i16, i16, i16, i16, [10 x i8], i32, i32, [4 x i8], i32, i32, i32, i32, i32, [109 x i32] }
%struct.cdf_sat_t = type { ptr, i64 }
%struct.cdf_stream_t = type { ptr, i64, i64, i64 }
%struct.cdf_dir_t = type { ptr, i64 }
%struct.buffer = type { i32, %struct.stat, ptr, i64, i64, ptr, i64 }
%struct.stat = type { i64, i64, i64, i32, i32, i32, i32, i64, i64, i64, i64, %struct.timespec, %struct.timespec, %struct.timespec, [3 x i64] }
%struct.timespec = type { i64, i64 }
%struct.magic_set = type { [2 x ptr], %struct.cont, %struct.out, i32, i32, i32, i32, i32, ptr, i64, i32, %struct.anon, %union.VALUETYPE, i16, i16, i16, i16, i16, i16, i64, i64, i64 }
%struct.cont = type { i64, ptr }
%struct.out = type { ptr, i64, ptr }
%struct.anon = type { ptr, i64, i64, i64 }
%union.VALUETYPE = type { [2 x i64], [112 x i8] }

@.str = private unnamed_addr constant [1 x i8] zeroinitializer, align 1
@.str.1 = private unnamed_addr constant [15 x i8] c"Can't read SAT\00", align 1
@.str.2 = private unnamed_addr constant [16 x i8] c"Can't read SSAT\00", align 1
@.str.3 = private unnamed_addr constant [21 x i8] c"Can't read directory\00", align 1
@.str.4 = private unnamed_addr constant [25 x i8] c"Cannot read short stream\00", align 1
@.str.5 = private unnamed_addr constant [11 x i8] c"FileHeader\00", align 1
@.str.6 = private unnamed_addr constant [18 x i8] c"HWP Document File\00", align 1
@.str.7 = private unnamed_addr constant [53 x i8] c"Hancom HWP (Hangul Word Processor) file, version 5.0\00", align 1
@.str.8 = private unnamed_addr constant [18 x i8] c"application/x-hwp\00", align 1
@.str.9 = private unnamed_addr constant [25 x i8] c"Cannot read summary info\00", align 1
@.str.10 = private unnamed_addr constant [25 x i8] c"Cannot read section info\00", align 1
@.str.11 = private unnamed_addr constant [36 x i8] c"Composite Document File V2 Document\00", align 1
@.str.12 = private unnamed_addr constant [5 x i8] c", %s\00", align 1
@.str.13 = private unnamed_addr constant [26 x i8] c"application/x-ole-storage\00", align 1

; Function Attrs: nounwind uwtable
define hidden i32 @file_trycdf(ptr noundef %0, ptr noundef %1) #0 {
  %3 = alloca i32, align 4
  %4 = alloca ptr, align 8
  %5 = alloca ptr, align 8
  %6 = alloca i32, align 4
  %7 = alloca ptr, align 8
  %8 = alloca i64, align 8
  %9 = alloca %struct.cdf_info_t, align 8
  %10 = alloca %struct.cdf_header_t, align 8
  %11 = alloca %struct.cdf_sat_t, align 8
  %12 = alloca %struct.cdf_sat_t, align 8
  %13 = alloca %struct.cdf_stream_t, align 8
  %14 = alloca %struct.cdf_stream_t, align 8
  %15 = alloca %struct.cdf_dir_t, align 8
  %16 = alloca i32, align 4
  %17 = alloca ptr, align 8
  %18 = alloca ptr, align 8
  store ptr %0, ptr %4, align 8
  store ptr %1, ptr %5, align 8
  %19 = load ptr, ptr %5, align 8
  %20 = getelementptr inbounds %struct.buffer, ptr %19, i32 0, i32 0
  %21 = load i32, ptr %20, align 8
  store i32 %21, ptr %6, align 4
  %22 = load ptr, ptr %5, align 8
  %23 = getelementptr inbounds %struct.buffer, ptr %22, i32 0, i32 2
  %24 = load ptr, ptr %23, align 8
  store ptr %24, ptr %7, align 8
  %25 = load ptr, ptr %5, align 8
  %26 = getelementptr inbounds %struct.buffer, ptr %25, i32 0, i32 3
  %27 = load i64, ptr %26, align 8
  store i64 %27, ptr %8, align 8
  store ptr @.str, ptr %17, align 8
  %28 = getelementptr inbounds %struct.cdf_stream_t, ptr %14, i32 0, i32 0
  store ptr null, ptr %28, align 8
  %29 = load i32, ptr %6, align 4
  %30 = getelementptr inbounds %struct.cdf_info_t, ptr %9, i32 0, i32 0
  store i32 %29, ptr %30, align 8
  %31 = load ptr, ptr %7, align 8
  %32 = getelementptr inbounds %struct.cdf_info_t, ptr %9, i32 0, i32 1
  store ptr %31, ptr %32, align 8
  %33 = load i64, ptr %8, align 8
  %34 = getelementptr inbounds %struct.cdf_info_t, ptr %9, i32 0, i32 2
  store i64 %33, ptr %34, align 8
  %35 = load ptr, ptr %4, align 8
  %36 = getelementptr inbounds %struct.magic_set, ptr %35, i32 0, i32 6
  %37 = load i32, ptr %36, align 4
  %38 = and i32 %37, 16779264
  %39 = icmp ne i32 %38, 0
  br i1 %39, label %40, label %41

40:                                               ; preds = %2
  store i32 0, ptr %3, align 4
  br label %201

41:                                               ; preds = %2
  %42 = call i32 @cdf_read_header(ptr noundef %9, ptr noundef %10)
  %43 = icmp eq i32 %42, -1
  br i1 %43, label %44, label %45

44:                                               ; preds = %41
  store i32 0, ptr %3, align 4
  br label %201

45:                                               ; preds = %41
  %46 = call i32 @cdf_read_sat(ptr noundef %9, ptr noundef %10, ptr noundef %11)
  store i32 %46, ptr %16, align 4
  %47 = icmp eq i32 %46, -1
  br i1 %47, label %48, label %49

48:                                               ; preds = %45
  store ptr @.str.1, ptr %17, align 8
  br label %159

49:                                               ; preds = %45
  %50 = call i32 @cdf_read_ssat(ptr noundef %9, ptr noundef %10, ptr noundef %11, ptr noundef %12)
  store i32 %50, ptr %16, align 4
  %51 = icmp eq i32 %50, -1
  br i1 %51, label %52, label %53

52:                                               ; preds = %49
  store ptr @.str.2, ptr %17, align 8
  br label %156

53:                                               ; preds = %49
  %54 = call i32 @cdf_read_dir(ptr noundef %9, ptr noundef %10, ptr noundef %11, ptr noundef %15)
  store i32 %54, ptr %16, align 4
  %55 = icmp eq i32 %54, -1
  br i1 %55, label %56, label %57

56:                                               ; preds = %53
  store ptr @.str.3, ptr %17, align 8
  br label %153

57:                                               ; preds = %53
  %58 = call i32 @cdf_read_short_stream(ptr noundef %9, ptr noundef %10, ptr noundef %11, ptr noundef %15, ptr noundef %13, ptr noundef %18)
  store i32 %58, ptr %16, align 4
  %59 = icmp eq i32 %58, -1
  br i1 %59, label %60, label %61

60:                                               ; preds = %57
  store ptr @.str.4, ptr %17, align 8
  br label %150

61:                                               ; preds = %57
  %62 = call i32 @cdf_read_user_stream(ptr noundef %9, ptr noundef %10, ptr noundef %11, ptr noundef %12, ptr noundef %13, ptr noundef %15, ptr noundef @.str.5, ptr noundef %14)
  %63 = icmp ne i32 %62, -1
  br i1 %63, label %64, label %105

64:                                               ; preds = %61
  %65 = getelementptr inbounds %struct.cdf_stream_t, ptr %14, i32 0, i32 1
  %66 = load i64, ptr %65, align 8
  %67 = getelementptr inbounds %struct.cdf_stream_t, ptr %14, i32 0, i32 3
  %68 = load i64, ptr %67, align 8
  %69 = mul i64 %66, %68
  %70 = icmp uge i64 %69, 17
  br i1 %70, label %71, label %102

71:                                               ; preds = %64
  %72 = getelementptr inbounds %struct.cdf_stream_t, ptr %14, i32 0, i32 0
  %73 = load ptr, ptr %72, align 8
  %74 = call i32 @memcmp(ptr noundef %73, ptr noundef @.str.6, i64 noundef 17) #5
  %75 = icmp eq i32 %74, 0
  br i1 %75, label %76, label %102

76:                                               ; preds = %71
  %77 = load ptr, ptr %4, align 8
  %78 = getelementptr inbounds %struct.magic_set, ptr %77, i32 0, i32 6
  %79 = load i32, ptr %78, align 4
  %80 = and i32 %79, 1040
  %81 = icmp eq i32 %80, 0
  br i1 %81, label %82, label %88

82:                                               ; preds = %76
  %83 = load ptr, ptr %4, align 8
  %84 = call i32 (ptr, ptr, ...) @file_printf(ptr noundef %83, ptr noundef @.str.7)
  %85 = icmp eq i32 %84, -1
  br i1 %85, label %86, label %87

86:                                               ; preds = %82
  store i32 -1, ptr %3, align 4
  br label %201

87:                                               ; preds = %82
  br label %101

88:                                               ; preds = %76
  %89 = load ptr, ptr %4, align 8
  %90 = getelementptr inbounds %struct.magic_set, ptr %89, i32 0, i32 6
  %91 = load i32, ptr %90, align 4
  %92 = and i32 %91, 16
  %93 = icmp ne i32 %92, 0
  br i1 %93, label %94, label %100

94:                                               ; preds = %88
  %95 = load ptr, ptr %4, align 8
  %96 = call i32 (ptr, ptr, ...) @file_printf(ptr noundef %95, ptr noundef @.str.8)
  %97 = icmp eq i32 %96, -1
  br i1 %97, label %98, label %99

98:                                               ; preds = %94
  store i32 -1, ptr %3, align 4
  br label %201

99:                                               ; preds = %94
  br label %100

100:                                              ; preds = %99, %88
  br label %101

101:                                              ; preds = %100, %87
  store i32 1, ptr %16, align 4
  br label %147

102:                                              ; preds = %71, %64
  %103 = call i32 @cdf_zero_stream(ptr noundef %14)
  br label %104

104:                                              ; preds = %102
  br label %105

105:                                              ; preds = %104, %61
  %106 = call i32 @cdf_read_summary_info(ptr noundef %9, ptr noundef %10, ptr noundef %11, ptr noundef %12, ptr noundef %13, ptr noundef %15, ptr noundef %14)
  store i32 %106, ptr %16, align 4
  %107 = icmp eq i32 %106, -1
  br i1 %107, label %108, label %114

108:                                              ; preds = %105
  %109 = call ptr @__errno_location() #6
  %110 = load i32, ptr %109, align 4
  %111 = icmp ne i32 %110, 3
  br i1 %111, label %112, label %113

112:                                              ; preds = %108
  store ptr @.str.9, ptr %17, align 8
  br label %113

113:                                              ; preds = %112, %108
  br label %119

114:                                              ; preds = %105
  %115 = load ptr, ptr %4, align 8
  %116 = load ptr, ptr %18, align 8
  %117 = call i32 @cdf_check_summary_info(ptr noundef %115, ptr noundef %9, ptr noundef %10, ptr noundef %11, ptr noundef %12, ptr noundef %13, ptr noundef %15, ptr noundef %14, ptr noundef %116, ptr noundef %17)
  store i32 %117, ptr %16, align 4
  %118 = call i32 @cdf_zero_stream(ptr noundef %14)
  br label %119

119:                                              ; preds = %114, %113
  %120 = load i32, ptr %16, align 4
  %121 = icmp sle i32 %120, 0
  br i1 %121, label %122, label %136

122:                                              ; preds = %119
  %123 = call i32 @cdf_read_doc_summary_info(ptr noundef %9, ptr noundef %10, ptr noundef %11, ptr noundef %12, ptr noundef %13, ptr noundef %15, ptr noundef %14)
  store i32 %123, ptr %16, align 4
  %124 = icmp eq i32 %123, -1
  br i1 %124, label %125, label %131

125:                                              ; preds = %122
  %126 = call ptr @__errno_location() #6
  %127 = load i32, ptr %126, align 4
  %128 = icmp ne i32 %127, 3
  br i1 %128, label %129, label %130

129:                                              ; preds = %125
  store ptr @.str.9, ptr %17, align 8
  br label %130

130:                                              ; preds = %129, %125
  br label %135

131:                                              ; preds = %122
  %132 = load ptr, ptr %4, align 8
  %133 = load ptr, ptr %18, align 8
  %134 = call i32 @cdf_check_summary_info(ptr noundef %132, ptr noundef %9, ptr noundef %10, ptr noundef %11, ptr noundef %12, ptr noundef %13, ptr noundef %15, ptr noundef %14, ptr noundef %133, ptr noundef %17)
  store i32 %134, ptr %16, align 4
  br label %135

135:                                              ; preds = %131, %130
  br label %136

136:                                              ; preds = %135, %119
  %137 = load i32, ptr %16, align 4
  %138 = icmp sle i32 %137, 0
  br i1 %138, label %139, label %146

139:                                              ; preds = %136
  %140 = load ptr, ptr %4, align 8
  %141 = call i32 @cdf_file_dir_info(ptr noundef %140, ptr noundef %15)
  store i32 %141, ptr %16, align 4
  %142 = load i32, ptr %16, align 4
  %143 = icmp slt i32 %142, 0
  br i1 %143, label %144, label %145

144:                                              ; preds = %139
  store ptr @.str.10, ptr %17, align 8
  br label %145

145:                                              ; preds = %144, %139
  br label %146

146:                                              ; preds = %145, %136
  br label %147

147:                                              ; preds = %146, %101
  %148 = call i32 @cdf_zero_stream(ptr noundef %14)
  %149 = call i32 @cdf_zero_stream(ptr noundef %13)
  br label %150

150:                                              ; preds = %147, %60
  %151 = getelementptr inbounds %struct.cdf_dir_t, ptr %15, i32 0, i32 0
  %152 = load ptr, ptr %151, align 8
  call void @_efree(ptr noundef %152)
  br label %153

153:                                              ; preds = %150, %56
  %154 = getelementptr inbounds %struct.cdf_sat_t, ptr %12, i32 0, i32 0
  %155 = load ptr, ptr %154, align 8
  call void @_efree(ptr noundef %155)
  br label %156

156:                                              ; preds = %153, %52
  %157 = getelementptr inbounds %struct.cdf_sat_t, ptr %11, i32 0, i32 0
  %158 = load ptr, ptr %157, align 8
  call void @_efree(ptr noundef %158)
  br label %159

159:                                              ; preds = %156, %48
  %160 = load i32, ptr %16, align 4
  %161 = icmp ne i32 %160, -1
  br i1 %161, label %162, label %164

162:                                              ; preds = %159
  %163 = load i32, ptr %16, align 4
  store i32 %163, ptr %3, align 4
  br label %201

164:                                              ; preds = %159
  %165 = load ptr, ptr %4, align 8
  %166 = getelementptr inbounds %struct.magic_set, ptr %165, i32 0, i32 6
  %167 = load i32, ptr %166, align 4
  %168 = and i32 %167, 1040
  %169 = icmp eq i32 %168, 0
  br i1 %169, label %170, label %187

170:                                              ; preds = %164
  %171 = load ptr, ptr %4, align 8
  %172 = call i32 (ptr, ptr, ...) @file_printf(ptr noundef %171, ptr noundef @.str.11)
  %173 = icmp eq i32 %172, -1
  br i1 %173, label %174, label %175

174:                                              ; preds = %170
  store i32 -1, ptr %3, align 4
  br label %201

175:                                              ; preds = %170
  %176 = load ptr, ptr %17, align 8
  %177 = load i8, ptr %176, align 1
  %178 = icmp ne i8 %177, 0
  br i1 %178, label %179, label %186

179:                                              ; preds = %175
  %180 = load ptr, ptr %4, align 8
  %181 = load ptr, ptr %17, align 8
  %182 = call i32 (ptr, ptr, ...) @file_printf(ptr noundef %180, ptr noundef @.str.12, ptr noundef %181)
  %183 = icmp eq i32 %182, -1
  br i1 %183, label %184, label %185

184:                                              ; preds = %179
  store i32 -1, ptr %3, align 4
  br label %201

185:                                              ; preds = %179
  br label %186

186:                                              ; preds = %185, %175
  br label %200

187:                                              ; preds = %164
  %188 = load ptr, ptr %4, align 8
  %189 = getelementptr inbounds %struct.magic_set, ptr %188, i32 0, i32 6
  %190 = load i32, ptr %189, align 4
  %191 = and i32 %190, 16
  %192 = icmp ne i32 %191, 0
  br i1 %192, label %193, label %199

193:                                              ; preds = %187
  %194 = load ptr, ptr %4, align 8
  %195 = call i32 (ptr, ptr, ...) @file_printf(ptr noundef %194, ptr noundef @.str.13)
  %196 = icmp eq i32 %195, -1
  br i1 %196, label %197, label %198

197:                                              ; preds = %193
  store i32 -1, ptr %3, align 4
  br label %201

198:                                              ; preds = %193
  br label %199

199:                                              ; preds = %198, %187
  br label %200

200:                                              ; preds = %199, %186
  store i32 1, ptr %3, align 4
  br label %201

201:                                              ; preds = %200, %197, %184, %174, %162, %98, %86, %44, %40
  %202 = load i32, ptr %3, align 4
  ret i32 %202
}