; Function Attrs: nounwind uwtable
define hidden noundef i32 @file_trycdf(ptr noundef %0, ptr nocapture noundef readonly %1) local_unnamed_addr #0 {
  %3 = alloca %struct.cdf_info_t, align 8
  %4 = alloca %struct.cdf_header_t, align 8
  %5 = alloca %struct.cdf_sat_t, align 8
  %6 = alloca %struct.cdf_sat_t, align 8
  %7 = alloca %struct.cdf_stream_t, align 8
  %8 = alloca %struct.cdf_stream_t, align 8
  %9 = alloca %struct.cdf_dir_t, align 8
  %10 = alloca ptr, align 8
  %11 = alloca ptr, align 8
  %12 = load i32, ptr %1, align 8
  %13 = getelementptr inbounds i8, ptr %1, i64 152
  %14 = load ptr, ptr %13, align 8
  %15 = getelementptr inbounds i8, ptr %1, i64 160
  %16 = load i64, ptr %15, align 8
  store ptr @.str, ptr %10, align 8
  store ptr null, ptr %8, align 8
  store i32 %12, ptr %3, align 8
  %17 = getelementptr inbounds i8, ptr %3, i64 8
  store ptr %14, ptr %17, align 8
  %18 = getelementptr inbounds i8, ptr %3, i64 16
  store i64 %16, ptr %18, align 8
  %19 = getelementptr inbounds i8, ptr %0, i64 68
  %20 = load i32, ptr %19, align 4
  %21 = and i32 %20, 16779264
  %.not = icmp eq i32 %21, 0
  br i1 %.not, label %22, label %117

22:                                               ; preds = %2
  %23 = call i32 @cdf_read_header(ptr noundef nonnull %3, ptr noundef nonnull %4) #8
  %24 = icmp eq i32 %23, -1
  br i1 %24, label %117, label %25

25:                                               ; preds = %22
  %26 = call i32 @cdf_read_sat(ptr noundef nonnull %3, ptr noundef nonnull %4, ptr noundef nonnull %5) #8
  %27 = icmp eq i32 %26, -1
  br i1 %27, label %.thread46, label %28

.thread46:                                        ; preds = %25
  store ptr @.str.1, ptr %10, align 8
  br label %98

28:                                               ; preds = %25
  %29 = call i32 @cdf_read_ssat(ptr noundef nonnull %3, ptr noundef nonnull %4, ptr noundef nonnull %5, ptr noundef nonnull %6) #8
  %30 = icmp eq i32 %29, -1
  br i1 %30, label %.thread49, label %32

.thread49:                                        ; preds = %28
  store ptr @.str.2, ptr %10, align 8
  %31 = load ptr, ptr %5, align 8
  call void @_efree(ptr noundef %31) #8
  br label %98

32:                                               ; preds = %28
  %33 = call i32 @cdf_read_dir(ptr noundef nonnull %3, ptr noundef nonnull %4, ptr noundef nonnull %5, ptr noundef nonnull %9) #8
  %34 = icmp eq i32 %33, -1
  br i1 %34, label %35, label %36

35:                                               ; preds = %32
  store ptr @.str.3, ptr %10, align 8
  br label %95

36:                                               ; preds = %32
  %37 = call i32 @cdf_read_short_stream(ptr noundef nonnull %3, ptr noundef nonnull %4, ptr noundef nonnull %5, ptr noundef nonnull %9, ptr noundef nonnull %7, ptr noundef nonnull %11) #8
  %38 = icmp eq i32 %37, -1
  br i1 %38, label %39, label %40

39:                                               ; preds = %36
  store ptr @.str.4, ptr %10, align 8
  br label %93

40:                                               ; preds = %36
  %41 = call i32 @cdf_read_user_stream(ptr noundef nonnull %3, ptr noundef nonnull %4, ptr noundef nonnull %5, ptr noundef nonnull %6, ptr noundef nonnull %7, ptr noundef nonnull %9, ptr noundef nonnull @.str.5, ptr noundef nonnull %8) #8
  %.not33 = icmp eq i32 %41, -1
  br i1 %.not33, label %66, label %42

42:                                               ; preds = %40
  %43 = getelementptr inbounds i8, ptr %8, i64 8
  %44 = load i64, ptr %43, align 8
  %45 = getelementptr inbounds i8, ptr %8, i64 24
  %46 = load i64, ptr %45, align 8
  %47 = mul i64 %46, %44
  %48 = icmp ugt i64 %47, 16
  br i1 %48, label %49, label %64

49:                                               ; preds = %42
  %50 = load ptr, ptr %8, align 8
  %bcmp = call i32 @bcmp(ptr noundef nonnull dereferenceable(17) %50, ptr noundef nonnull dereferenceable(17) @.str.6, i64 17)
  %51 = icmp eq i32 %bcmp, 0
  br i1 %51, label %52, label %64

52:                                               ; preds = %49
  %53 = load i32, ptr %19, align 4
  %54 = and i32 %53, 1040
  %55 = icmp eq i32 %54, 0
  br i1 %55, label %56, label %59

56:                                               ; preds = %52
  %57 = call i32 (ptr, ptr, ...) @file_printf(ptr noundef nonnull %0, ptr noundef nonnull @.str.7) #8
  %58 = icmp eq i32 %57, -1
  br i1 %58, label %117, label %.thread44

59:                                               ; preds = %52
  %60 = and i32 %53, 16
  %.not36 = icmp eq i32 %60, 0
  br i1 %.not36, label %.thread44, label %61

61:                                               ; preds = %59
  %62 = call i32 (ptr, ptr, ...) @file_printf(ptr noundef nonnull %0, ptr noundef nonnull @.str.8) #8
  %63 = icmp eq i32 %62, -1
  br i1 %63, label %117, label %.thread44

64:                                               ; preds = %49, %42
  %65 = call i32 @cdf_zero_stream(ptr noundef nonnull %8) #8
  br label %66

66:                                               ; preds = %64, %40
  %67 = call i32 @cdf_read_summary_info(ptr noundef nonnull %3, ptr noundef nonnull %4, ptr noundef nonnull %5, ptr noundef nonnull %6, ptr noundef nonnull %7, ptr noundef nonnull %9, ptr noundef nonnull %8) #8
  %68 = icmp eq i32 %67, -1
  br i1 %68, label %69, label %73

69:                                               ; preds = %66
  %70 = tail call ptr @__errno_location() #9
  %71 = load i32, ptr %70, align 4
  %.not34 = icmp eq i32 %71, 3
  br i1 %.not34, label %.thread, label %72

72:                                               ; preds = %69
  store ptr @.str.9, ptr %10, align 8
  br label %.thread

73:                                               ; preds = %66
  %74 = load ptr, ptr %11, align 8
  %75 = call fastcc i32 @cdf_check_summary_info(ptr noundef nonnull %0, ptr noundef nonnull %3, ptr noundef nonnull %4, ptr noundef nonnull %5, ptr noundef nonnull %6, ptr noundef nonnull %7, ptr noundef nonnull %9, ptr noundef nonnull %8, ptr noundef %74, ptr noundef nonnull %10)
  %76 = call i32 @cdf_zero_stream(ptr noundef nonnull %8) #8
  %77 = icmp slt i32 %75, 1
  br i1 %77, label %.thread, label %.thread44

.thread:                                          ; preds = %69, %72, %73
  %78 = call i32 @cdf_read_doc_summary_info(ptr noundef nonnull %3, ptr noundef nonnull %4, ptr noundef nonnull %5, ptr noundef nonnull %6, ptr noundef nonnull %7, ptr noundef nonnull %9, ptr noundef nonnull %8) #8
  %79 = icmp eq i32 %78, -1
  br i1 %79, label %80, label %84

80:                                               ; preds = %.thread
  %81 = tail call ptr @__errno_location() #9
  %82 = load i32, ptr %81, align 4
  %.not35 = icmp eq i32 %82, 3
  br i1 %.not35, label %.thread42, label %83

83:                                               ; preds = %80
  store ptr @.str.9, ptr %10, align 8
  br label %.thread42

84:                                               ; preds = %.thread
  %85 = load ptr, ptr %11, align 8
  %86 = call fastcc i32 @cdf_check_summary_info(ptr noundef nonnull %0, ptr noundef nonnull %3, ptr noundef nonnull %4, ptr noundef nonnull %5, ptr noundef nonnull %6, ptr noundef nonnull %7, ptr noundef nonnull %9, ptr noundef nonnull %8, ptr noundef %85, ptr noundef nonnull %10)
  %87 = icmp slt i32 %86, 1
  br i1 %87, label %.thread42, label %.thread44

.thread42:                                        ; preds = %80, %83, %84
  %88 = call fastcc i32 @cdf_file_dir_info(ptr noundef nonnull %0, ptr noundef nonnull %9), !range !4
  %89 = icmp slt i32 %88, 0
  br i1 %89, label %90, label %.thread44

90:                                               ; preds = %.thread42
  store ptr @.str.10, ptr %10, align 8
  br label %.thread44

.thread44:                                        ; preds = %73, %56, %61, %59, %84, %90, %.thread42
  %.2 = phi i32 [ -1, %90 ], [ %88, %.thread42 ], [ %86, %84 ], [ 1, %59 ], [ 1, %61 ], [ 1, %56 ], [ %75, %73 ]
  %91 = call i32 @cdf_zero_stream(ptr noundef nonnull %8) #8
  %92 = call i32 @cdf_zero_stream(ptr noundef nonnull %7) #8
  br label %93

93:                                               ; preds = %.thread44, %39
  %.3 = phi i32 [ -1, %39 ], [ %.2, %.thread44 ]
  %94 = load ptr, ptr %9, align 8
  call void @_efree(ptr noundef %94) #8
  br label %95

95:                                               ; preds = %35, %93
  %.4 = phi i32 [ -1, %35 ], [ %.3, %93 ]
  %96 = load ptr, ptr %6, align 8
  call void @_efree(ptr noundef %96) #8
  %97 = load ptr, ptr %5, align 8
  call void @_efree(ptr noundef %97) #8
  %.not37 = icmp eq i32 %.4, -1
  br i1 %.not37, label %98, label %117

98:                                               ; preds = %.thread49, %.thread46, %95
  %99 = load i32, ptr %19, align 4
  %100 = and i32 %99, 1040
  %101 = icmp eq i32 %100, 0
  br i1 %101, label %102, label %111

102:                                              ; preds = %98
  %103 = call i32 (ptr, ptr, ...) @file_printf(ptr noundef nonnull %0, ptr noundef nonnull @.str.11) #8
  %104 = icmp eq i32 %103, -1
  br i1 %104, label %117, label %105

105:                                              ; preds = %102
  %106 = load ptr, ptr %10, align 8
  %107 = load i8, ptr %106, align 1
  %.not39 = icmp eq i8 %107, 0
  br i1 %.not39, label %116, label %108

108:                                              ; preds = %105
  %109 = call i32 (ptr, ptr, ...) @file_printf(ptr noundef nonnull %0, ptr noundef nonnull @.str.12, ptr noundef nonnull %106) #8
  %110 = icmp eq i32 %109, -1
  br i1 %110, label %117, label %116

111:                                              ; preds = %98
  %112 = and i32 %99, 16
  %.not38 = icmp eq i32 %112, 0
  br i1 %.not38, label %116, label %113

113:                                              ; preds = %111
  %114 = call i32 (ptr, ptr, ...) @file_printf(ptr noundef nonnull %0, ptr noundef nonnull @.str.13) #8
  %115 = icmp eq i32 %114, -1
  br i1 %115, label %117, label %116

116:                                              ; preds = %111, %113, %105, %108
  br label %117

117:                                              ; preds = %113, %108, %102, %95, %61, %56, %22, %2, %116
  %.024 = phi i32 [ 1, %116 ], [ 0, %2 ], [ 0, %22 ], [ -1, %56 ], [ -1, %61 ], [ %.4, %95 ], [ -1, %102 ], [ -1, %108 ], [ -1, %113 ]
  ret i32 %.024
}